; Function Attrs: nounwind uwtable
define internal fastcc range(i32 0, 2) i32 @kdf_argon2_ctx_set_out_length(ptr noundef writeonly captures(none) %0, i32 noundef %1) unnamed_addr #0 {
  %3 = icmp ult i32 %1, 4
  br i1 %3, label %4, label %5

4:                                                ; preds = %2
  tail call void @ERR_new() #10
  tail call void @ERR_set_debug(ptr noundef nonnull @.str, i32 noundef 1223, ptr noundef nonnull @__func__.kdf_argon2_ctx_set_out_length) #10
  tail call void (i32, i32, ptr, ...) @ERR_set_error(i32 noundef 57, i32 noundef 217, ptr noundef nonnull @.str.10, i32 noundef 4) #10
  br label %7

5:                                                ; preds = %2
  %6 = getelementptr inbounds nuw i8, ptr %0, i64 8
  store i32 %1, ptr %6, align 8, !tbaa !13
  br label %7

7:                                                ; preds = %5, %4
  %.0 = phi i32 [ 0, %4 ], [ 1, %5 ]
  ret i32 %.0
}